; Function Attrs: nounwind uwtable
define range(i32 -1, 1) i32 @H5B2__hdr_dirty(ptr noundef %0) local_unnamed_addr #0 {
  %2 = tail call i32 @H5AC_mark_entry_dirty(ptr noundef %0) #4
  %3 = icmp slt i32 %2, 0
  br i1 %3, label %4, label %8

4:                                                ; preds = %1
  %5 = load i64, ptr @H5E_BTREE_g, align 8
  %6 = load i64, ptr @H5E_CANTMARKDIRTY_g, align 8
  %7 = tail call i32 (ptr, ptr, i32, i64, i64, ptr, ...) @H5E_printf_stack(ptr noundef nonnull @.str.1, ptr noundef nonnull @__func__.H5B2__hdr_dirty, i32 noundef 463, i64 noundef %5, i64 noundef %6, ptr noundef nonnull @.str.19) #4
  br label %8

8:                                                ; preds = %1, %4
  %.0 = phi i32 [ -1, %4 ], [ 0, %1 ]
  ret i32 %.0
}